target datalayout = "e-m:e-p270:32:32-p271:32:32-p272:64:64-i64:64-i128:128-f80:128-n8:16:32:64-S128"
target triple = "x86_64-pc-linux-gnu"

%"struct.cv::detail::CheckContext" = type { ptr, ptr, i32, i32, ptr, ptr, ptr }
%"class.cv::utils::trace::details::Region" = type <{ ptr, i32, [4 x i8] }>
%"class.cv::Rect_" = type { i32, i32, i32, i32 }
%"class.cv::FilterEngine" = type { ptr, i32, i32, i32, %"class.cv::Size_", %"class.cv::Point_", i32, %"class.cv::Size_", %"class.cv::Rect_", i32, i32, i32, i32, %"class.std::vector", i32, %"class.std::vector.0", %"class.std::vector.0", %"class.std::vector.0", %"class.std::vector.0", i32, i32, i32, i32, i32, i32, %"class.std::vector.5", %"struct.cv::Ptr", %"struct.cv::Ptr.10", %"struct.cv::Ptr.14" }
%"class.cv::Point_" = type { i32, i32 }
%"class.cv::Size_" = type { i32, i32 }
%"class.std::vector" = type { %"struct.std::_Vector_base" }
%"struct.std::_Vector_base" = type { %"struct.std::_Vector_base<int, std::allocator<int>>::_Vector_impl" }
%"struct.std::_Vector_base<int, std::allocator<int>>::_Vector_impl" = type { %"struct.std::_Vector_base<int, std::allocator<int>>::_Vector_impl_data" }
%"struct.std::_Vector_base<int, std::allocator<int>>::_Vector_impl_data" = type { ptr, ptr, ptr }
%"class.std::vector.0" = type { %"struct.std::_Vector_base.1" }
%"struct.std::_Vector_base.1" = type { %"struct.std::_Vector_base<unsigned char, std::allocator<unsigned char>>::_Vector_impl" }
%"struct.std::_Vector_base<unsigned char, std::allocator<unsigned char>>::_Vector_impl" = type { %"struct.std::_Vector_base<unsigned char, std::allocator<unsigned char>>::_Vector_impl_data" }
%"struct.std::_Vector_base<unsigned char, std::allocator<unsigned char>>::_Vector_impl_data" = type { ptr, ptr, ptr }
%"class.std::vector.5" = type { %"struct.std::_Vector_base.6" }
%"struct.std::_Vector_base.6" = type { %"struct.std::_Vector_base<unsigned char *, std::allocator<unsigned char *>>::_Vector_impl" }
%"struct.std::_Vector_base<unsigned char *, std::allocator<unsigned char *>>::_Vector_impl" = type { %"struct.std::_Vector_base<unsigned char *, std::allocator<unsigned char *>>::_Vector_impl_data" }
%"struct.std::_Vector_base<unsigned char *, std::allocator<unsigned char *>>::_Vector_impl_data" = type { ptr, ptr, ptr }
%"struct.cv::Ptr" = type { %"class.std::shared_ptr" }
%"class.std::shared_ptr" = type { %"class.std::__shared_ptr" }
%"class.std::__shared_ptr" = type { ptr, %"class.std::__shared_count" }
%"class.std::__shared_count" = type { ptr }
%"struct.cv::Ptr.10" = type { %"class.std::shared_ptr.11" }
%"class.std::shared_ptr.11" = type { %"class.std::__shared_ptr.12" }
%"class.std::__shared_ptr.12" = type { ptr, %"class.std::__shared_count" }
%"struct.cv::Ptr.14" = type { %"class.std::shared_ptr.15" }
%"class.std::shared_ptr.15" = type { %"class.std::__shared_ptr.16" }
%"class.std::__shared_ptr.16" = type { ptr, %"class.std::__shared_count" }
%"class.cv::Mat" = type { i32, i32, i32, i32, ptr, ptr, ptr, ptr, ptr, ptr, %"struct.cv::MatSize", %"struct.cv::MatStep" }
%"struct.cv::MatSize" = type { ptr }
%"struct.cv::MatStep" = type { ptr, [2 x i64] }

@_ZZN2cv12FilterEngine5applyERKNS_3MatERS1_RKNS_5Size_IiEERKNS_6Point_IiEEE15__cv_check__214 = internal constant %"struct.cv::detail::CheckContext" { ptr @.str.31, ptr @.str.19, i32 214, i32 1, ptr @.str.32, ptr @.str.33, ptr @.str.34 }, align 8
@_ZZN2cv12FilterEngine5applyERKNS_3MatERS1_RKNS_5Size_IiEERKNS_6Point_IiEEE15__cv_check__215 = internal constant %"struct.cv::detail::CheckContext" { ptr @.str.31, ptr @.str.19, i32 215, i32 1, ptr @.str.32, ptr @.str.35, ptr @.str.36 }, align 8

; Function Attrs: mustprogress nounwind uwtable
define linkonce_odr hidden noundef i32 @_ZNK2cv3Mat4typeEv(ptr noundef nonnull align 8 dereferenceable(96) %0) #6 comdat align 2 {
  %2 = alloca ptr, align 8
  store ptr %0, ptr %2, align 8
  %3 = load ptr, ptr %2, align 8
  %4 = getelementptr inbounds %"class.cv::Mat", ptr %3, i32 0, i32 0
  %5 = load i32, ptr %4, align 8
  %6 = and i32 %5, 4095
  ret i32 %6
}

; Function Attrs: mustprogress uwtable
define hidden void @_ZN2cv12FilterEngine5applyERKNS_3MatERS1_RKNS_5Size_IiEERKNS_6Point_IiEE(ptr noundef nonnull align 8 dereferenceable(304) %0, ptr noundef nonnull align 8 dereferenceable(96) %1, ptr noundef nonnull align 8 dereferenceable(96) %2, ptr noundef nonnull align 4 dereferenceable(8) %3, ptr noundef nonnull align 4 dereferenceable(8) %4) unnamed_addr #4 align 2 personality ptr @__gxx_personality_v0 {
  %6 = alloca ptr, align 8
  %7 = alloca ptr, align 8
  %8 = alloca ptr, align 8
  %9 = alloca ptr, align 8
  %10 = alloca ptr, align 8
  %11 = alloca %"class.cv::utils::trace::details::Region", align 8
  %12 = alloca ptr, align 8
  %13 = alloca i32, align 4
  store ptr %0, ptr %6, align 8
  store ptr %1, ptr %7, align 8
  store ptr %2, ptr %8, align 8
  store ptr %3, ptr %9, align 8
  store ptr %4, ptr %10, align 8
  %14 = load ptr, ptr %6, align 8
  call void @_ZN2cv5utils5trace7details6RegionC1ERKNS3_21LocationStaticStorageE(ptr noundef nonnull align 8 dereferenceable(12) %11, ptr noundef nonnull align 8 dereferenceable(32) @_ZZN2cv12FilterEngine5applyERKNS_3MatERS1_RKNS_5Size_IiEERKNS_6Point_IiEEE25__cv_trace_location_fn212)
  br label %15

15:                                               ; preds = %5
  %16 = load ptr, ptr %7, align 8
  %17 = invoke noundef i32 @_ZNK2cv3Mat4typeEv(ptr noundef nonnull align 8 dereferenceable(96) %16)
          to label %18 unwind label %23

18:                                               ; preds = %15
  %19 = getelementptr inbounds %"class.cv::FilterEngine", ptr %14, i32 0, i32 1
  %20 = load i32, ptr %19, align 8
  %21 = icmp eq i32 %17, %20
  br i1 %21, label %22, label %27

22:                                               ; preds = %18
  br label %34

23:                                               ; preds = %54, %48, %45, %37, %30, %27, %15
  %24 = landingpad { ptr, i32 }
          cleanup
  %25 = extractvalue { ptr, i32 } %24, 0
  store ptr %25, ptr %12, align 8
  %26 = extractvalue { ptr, i32 } %24, 1
  store i32 %26, ptr %13, align 4
  call void @_ZN2cv5utils5trace7details6RegionD2Ev(ptr noundef nonnull align 8 dereferenceable(12) %11) #3
  br label %60

27:                                               ; preds = %18
  %28 = load ptr, ptr %7, align 8
  %29 = invoke noundef i32 @_ZNK2cv3Mat4typeEv(ptr noundef nonnull align 8 dereferenceable(96) %28)
          to label %30 unwind label %23

30:                                               ; preds = %27
  %31 = getelementptr inbounds %"class.cv::FilterEngine", ptr %14, i32 0, i32 1
  %32 = load i32, ptr %31, align 8
  invoke void @_ZN2cv6detail20check_failed_MatTypeEiiRKNS0_12CheckContextE(i32 noundef %29, i32 noundef %32, ptr noundef nonnull align 8 dereferenceable(48) @_ZZN2cv12FilterEngine5applyERKNS_3MatERS1_RKNS_5Size_IiEERKNS_6Point_IiEEE15__cv_check__214) #16
          to label %33 unwind label %23

33:                                               ; preds = %30
  unreachable

34:                                               ; preds = %22
  br label %35

35:                                               ; preds = %34
  br label %36

36:                                               ; preds = %35
  br label %37

37:                                               ; preds = %36
  %38 = load ptr, ptr %8, align 8
  %39 = invoke noundef i32 @_ZNK2cv3Mat4typeEv(ptr noundef nonnull align 8 dereferenceable(96) %38)
          to label %40 unwind label %23

40:                                               ; preds = %37
  %41 = getelementptr inbounds %"class.cv::FilterEngine", ptr %14, i32 0, i32 2
  %42 = load i32, ptr %41, align 4
  %43 = icmp eq i32 %39, %42
  br i1 %43, label %44, label %45

44:                                               ; preds = %40
  br label %52

45:                                               ; preds = %40
  %46 = load ptr, ptr %8, align 8
  %47 = invoke noundef i32 @_ZNK2cv3Mat4typeEv(ptr noundef nonnull align 8 dereferenceable(96) %46)
          to label %48 unwind label %23

48:                                               ; preds = %45
  %49 = getelementptr inbounds %"class.cv::FilterEngine", ptr %14, i32 0, i32 2
  %50 = load i32, ptr %49, align 4
  invoke void @_ZN2cv6detail20check_failed_MatTypeEiiRKNS0_12CheckContextE(i32 noundef %47, i32 noundef %50, ptr noundef nonnull align 8 dereferenceable(48) @_ZZN2cv12FilterEngine5applyERKNS_3MatERS1_RKNS_5Size_IiEERKNS_6Point_IiEEE15__cv_check__215) #16
          to label %51 unwind label %23

51:                                               ; preds = %48
  unreachable

52:                                               ; preds = %44
  br label %53

53:                                               ; preds = %52
  br label %54

54:                                               ; preds = %53
  %55 = load ptr, ptr %7, align 8
  %56 = load ptr, ptr %8, align 8
  %57 = load ptr, ptr %9, align 8
  %58 = load ptr, ptr %10, align 8
  invoke void @_ZN2cv12cpu_baseline19FilterEngine__applyERNS_12FilterEngineERKNS_3MatERS3_RKNS_5Size_IiEERKNS_6Point_IiEE(ptr noundef nonnull align 8 dereferenceable(304) %14, ptr noundef nonnull align 8 dereferenceable(96) %55, ptr noundef nonnull align 8 dereferenceable(96) %56, ptr noundef nonnull align 4 dereferenceable(8) %57, ptr noundef nonnull align 4 dereferenceable(8) %58)
          to label %59 unwind label %23

59:                                               ; preds = %54
  call void @_ZN2cv5utils5trace7details6RegionD2Ev(ptr noundef nonnull align 8 dereferenceable(12) %11) #3
  ret void

60:                                               ; preds = %23
  %61 = load ptr, ptr %12, align 8
  %62 = load i32, ptr %13, align 4
  %63 = insertvalue { ptr, i32 } poison, ptr %61, 0
  %64 = insertvalue { ptr, i32 } %63, i32 %62, 1
  resume { ptr, i32 } %64
}