; Function Attrs: mustprogress uwtable
define hidden void @_ZN2cv12FilterEngine5applyERKNS_3MatERS1_RKNS_5Size_IiEERKNS_6Point_IiEE(ptr noundef nonnull align 8 dereferenceable(304) %0, ptr nocapture noundef nonnull readonly align 8 dereferenceable(96) %1, ptr nocapture noundef nonnull readonly align 8 dereferenceable(96) %2, ptr nocapture noundef nonnull readonly align 4 dereferenceable(8) %3, ptr nocapture noundef nonnull readonly align 4 dereferenceable(8) %4) unnamed_addr #3 align 2 personality ptr @__gxx_personality_v0 {
  %6 = alloca %"class.cv::utils::trace::details::Region", align 8
  call void @_ZN2cv5utils5trace7details6RegionC1ERKNS3_21LocationStaticStorageE(ptr noundef nonnull align 8 dereferenceable(12) %6, ptr noundef nonnull align 8 dereferenceable(32) @_ZZN2cv12FilterEngine5applyERKNS_3MatERS1_RKNS_5Size_IiEERKNS_6Point_IiEEE25__cv_trace_location_fn212)
  %7 = load i32, ptr %1, align 8
  %8 = and i32 %7, 4095
  %9 = getelementptr inbounds i8, ptr %0, i64 8
  %10 = load i32, ptr %9, align 8
  %11 = icmp eq i32 %8, %10
  br i1 %11, label %14, label %.invoke

12:                                               ; preds = %.invoke, %23
  %13 = landingpad { ptr, i32 }
          cleanup
  call void @_ZN2cv5utils5trace7details6RegionD2Ev(ptr noundef nonnull align 8 dereferenceable(12) %6) #25
  resume { ptr, i32 } %13

14:                                               ; preds = %5
  %15 = load i32, ptr %2, align 8
  %16 = and i32 %15, 4095
  %17 = getelementptr inbounds i8, ptr %0, i64 12
  %18 = load i32, ptr %17, align 4
  %19 = icmp eq i32 %16, %18
  br i1 %19, label %23, label %.invoke

.invoke:                                          ; preds = %14, %5
  %20 = phi i32 [ %8, %5 ], [ %16, %14 ]
  %21 = phi i32 [ %10, %5 ], [ %18, %14 ]
  %22 = phi ptr [ @_ZZN2cv12FilterEngine5applyERKNS_3MatERS1_RKNS_5Size_IiEERKNS_6Point_IiEEE15__cv_check__214, %5 ], [ @_ZZN2cv12FilterEngine5applyERKNS_3MatERS1_RKNS_5Size_IiEERKNS_6Point_IiEEE15__cv_check__215, %14 ]
  invoke void @_ZN2cv6detail20check_failed_MatTypeEiiRKNS0_12CheckContextE(i32 noundef %20, i32 noundef %21, ptr noundef nonnull align 8 dereferenceable(48) %22) #26
          to label %.cont unwind label %12

.cont:                                            ; preds = %.invoke
  unreachable

23:                                               ; preds = %14
  invoke void @_ZN2cv12cpu_baseline19FilterEngine__applyERNS_12FilterEngineERKNS_3MatERS3_RKNS_5Size_IiEERKNS_6Point_IiEE(ptr noundef nonnull align 8 dereferenceable(304) %0, ptr noundef nonnull align 8 dereferenceable(96) %1, ptr noundef nonnull align 8 dereferenceable(96) %2, ptr noundef nonnull align 4 dereferenceable(8) %3, ptr noundef nonnull align 4 dereferenceable(8) %4)
          to label %24 unwind label %12

24:                                               ; preds = %23
  %25 = getelementptr inbounds i8, ptr %6, i64 8
  %26 = load i32, ptr %25, align 8
  %.not.i = icmp eq i32 %26, 0
  br i1 %.not.i, label %_ZN2cv5utils5trace7details6RegionD2Ev.exit, label %27

27:                                               ; preds = %24
  invoke void @_ZN2cv5utils5trace7details6Region7destroyEv(ptr noundef nonnull align 8 dereferenceable(12) %6)
          to label %_ZN2cv5utils5trace7details6RegionD2Ev.exit unwind label %28

28:                                               ; preds = %27
  %29 = landingpad { ptr, i32 }
          catch ptr null
  %30 = extractvalue { ptr, i32 } %29, 0
  call void @__clang_call_terminate(ptr %30) #27
  unreachable

_ZN2cv5utils5trace7details6RegionD2Ev.exit:       ; preds = %24, %27
  ret void
}